; ModuleID = '16/710.c'
source_filename = "16/710.c"
target datalayout = "e-m:e-p270:32:32-p271:32:32-p272:64:64-i64:64-f80:128-n8:16:32:64-S128"
target triple = "x86_64-pc-linux-gnu"

@.str = private unnamed_addr constant [3 x i8] c"%d\00", align 1
@.str.1 = private unnamed_addr constant [5 x i8] c"%d%d\00", align 1
@.str.2 = private unnamed_addr constant [7 x i8] c"%d%d%d\00", align 1
@.str.3 = private unnamed_addr constant [9 x i8] c"%d%d%d%d\00", align 1

; Function Attrs: noinline nounwind uwtable
define dso_local i32 @main() #0 {
  %1 = alloca i32, align 4
  %2 = alloca i32, align 4
  %3 = alloca i32, align 4
  %4 = alloca i32, align 4
  %5 = alloca i32, align 4
  %6 = alloca i32, align 4
  %7 = alloca i32, align 4
  %8 = alloca i32, align 4
  %9 = alloca i32, align 4
  %10 = alloca i32, align 4
  %11 = alloca i32, align 4
  %12 = alloca i32, align 4
  store i32 0, i32* %1, align 4
  %13 = call i32 (i8*, ...) @__isoc99_scanf(i8* getelementptr inbounds ([3 x i8], [3 x i8]* @.str, i64 0, i64 0), i32* %2)
  %14 = load i32, i32* %2, align 4
  %15 = srem i32 %14, 10
  store i32 %15, i32* %3, align 4
  %16 = load i32, i32* %2, align 4
  %17 = load i32, i32* %3, align 4
  %18 = sub nsw i32 %16, %17
  store i32 %18, i32* %7, align 4
  %19 = load i32, i32* %7, align 4
  %20 = sdiv i32 %19, 10
  store i32 %20, i32* %8, align 4
  %21 = load i32, i32* %8, align 4
  %22 = srem i32 %21, 10
  store i32 %22, i32* %4, align 4
  %23 = load i32, i32* %2, align 4
  %24 = load i32, i32* %4, align 4
  %25 = mul nsw i32 10, %24
  %26 = sub nsw i32 %23, %25
  %27 = load i32, i32* %3, align 4
  %28 = sub nsw i32 %26, %27
  store i32 %28, i32* %9, align 4
  %29 = load i32, i32* %9, align 4
  %30 = sdiv i32 %29, 100
  store i32 %30, i32* %10, align 4
  %31 = load i32, i32* %10, align 4
  %32 = srem i32 %31, 10
  store i32 %32, i32* %5, align 4
  %33 = load i32, i32* %2, align 4
  %34 = load i32, i32* %5, align 4
  %35 = mul nsw i32 100, %34
  %36 = sub nsw i32 %33, %35
  %37 = load i32, i32* %4, align 4
  %38 = mul nsw i32 10, %37
  %39 = sub nsw i32 %36, %38
  %40 = load i32, i32* %3, align 4
  %41 = sub nsw i32 %39, %40
  store i32 %41, i32* %11, align 4
  %42 = load i32, i32* %11, align 4
  %43 = sdiv i32 %42, 1000
  store i32 %43, i32* %12, align 4
  %44 = load i32, i32* %12, align 4
  %45 = srem i32 %44, 10
  store i32 %45, i32* %6, align 4
  %46 = load i32, i32* %6, align 4
  %47 = icmp eq i32 %46, 0
  br i1 %47, label %48, label %68

48:                                               ; preds = %0
  %49 = load i32, i32* %5, align 4
  %50 = icmp eq i32 %49, 0
  br i1 %50, label %51, label %62

51:                                               ; preds = %48
  %52 = load i32, i32* %4, align 4
  %53 = icmp eq i32 %52, 0
  br i1 %53, label %54, label %57

54:                                               ; preds = %51
  %55 = load i32, i32* %3, align 4
  %56 = call i32 (i8*, ...) @printf(i8* getelementptr inbounds ([3 x i8], [3 x i8]* @.str, i64 0, i64 0), i32 %55)
  br label %61

57:                                               ; preds = %51
  %58 = load i32, i32* %3, align 4
  %59 = load i32, i32* %4, align 4
  %60 = call i32 (i8*, ...) @printf(i8* getelementptr inbounds ([5 x i8], [5 x i8]* @.str.1, i64 0, i64 0), i32 %58, i32 %59)
  br label %61

61:                                               ; preds = %57, %54
  br label %67

62:                                               ; preds = %48
  %63 = load i32, i32* %3, align 4
  %64 = load i32, i32* %4, align 4
  %65 = load i32, i32* %5, align 4
  %66 = call i32 (i8*, ...) @printf(i8* getelementptr inbounds ([7 x i8], [7 x i8]* @.str.2, i64 0, i64 0), i32 %63, i32 %64, i32 %65)
  br label %67

67:                                               ; preds = %62, %61
  br label %74

68:                                               ; preds = %0
  %69 = load i32, i32* %3, align 4
  %70 = load i32, i32* %4, align 4
  %71 = load i32, i32* %5, align 4
  %72 = load i32, i32* %6, align 4
  %73 = call i32 (i8*, ...) @printf(i8* getelementptr inbounds ([9 x i8], [9 x i8]* @.str.3, i64 0, i64 0), i32 %69, i32 %70, i32 %71, i32 %72)
  br label %74

74:                                               ; preds = %68, %67
  ret i32 0
}

declare dso_local i32 @__isoc99_scanf(i8*, ...) #1

declare dso_local i32 @printf(i8*, ...) #1


!llvm.module.flags = !{!0}
!llvm.ident = !{!1}

!0 = !{i32 1, !"wchar_size", i32 4}
!1 = !{!"clang version 10.0.0-4ubuntu1 "}
